; ModuleID = 'source-C-CXX/9/1561.c'
source_filename = "source-C-CXX/9/1561.c"
target datalayout = "e-m:e-p270:32:32-p271:32:32-p272:64:64-i64:64-f80:128-n8:16:32:64-S128"
target triple = "x86_64-pc-linux-gnu"

@.str = private unnamed_addr constant [3 x i8] c"%d\00", align 1

; Function Attrs: nofree nounwind sspstrong uwtable
define dso_local i32 @main() local_unnamed_addr #0 {
  %1 = alloca i32, align 4
  %2 = alloca [25 x i32], align 16
  %3 = alloca i32, align 4
  %4 = alloca [25 x i32], align 16
  %5 = bitcast i32* %1 to i8*
  call void @llvm.lifetime.start.p0i8(i64 4, i8* nonnull %5) #5
  %6 = bitcast [25 x i32]* %2 to i8*
  call void @llvm.lifetime.start.p0i8(i64 100, i8* nonnull %6) #5
  call void @llvm.memset.p0i8.i64(i8* noundef nonnull align 16 dereferenceable(100) %6, i8 0, i64 100, i1 false)
  %7 = bitcast i32* %3 to i8*
  call void @llvm.lifetime.start.p0i8(i64 4, i8* nonnull %7) #5
  %8 = bitcast [25 x i32]* %4 to i8*
  call void @llvm.lifetime.start.p0i8(i64 100, i8* nonnull %8) #5
  call void @llvm.memset.p0i8.i64(i8* noundef nonnull align 16 dereferenceable(100) %8, i8 0, i64 100, i1 false)
  %9 = getelementptr inbounds [25 x i32], [25 x i32]* %4, i64 0, i64 0
  store i32 1, i32* %9, align 16
  %10 = call i32 (i8*, ...) @__isoc99_scanf(i8* getelementptr inbounds ([3 x i8], [3 x i8]* @.str, i64 0, i64 0), i32* nonnull %1)
  store i32 0, i32* %3, align 4, !tbaa !5
  %11 = load i32, i32* %1, align 4, !tbaa !5
  %12 = icmp sgt i32 %11, 0
  br i1 %12, label %89, label %156

13:                                               ; preds = %89
  %14 = icmp sgt i32 %95, 0
  br i1 %14, label %15, label %156

15:                                               ; preds = %13
  %16 = zext i32 %95 to i64
  %17 = icmp ult i32 %95, 8
  br i1 %17, label %87, label %18

18:                                               ; preds = %15
  %19 = and i64 %16, 4294967288
  %20 = add nsw i64 %19, -8
  %21 = lshr exact i64 %20, 3
  %22 = add nuw nsw i64 %21, 1
  %23 = and i64 %22, 7
  %24 = icmp ult i64 %20, 56
  br i1 %24, label %72, label %25

25:                                               ; preds = %18
  %26 = and i64 %22, 4611686018427387896
  br label %27

27:                                               ; preds = %27, %25
  %28 = phi i64 [ 0, %25 ], [ %69, %27 ]
  %29 = phi i64 [ %26, %25 ], [ %70, %27 ]
  %30 = getelementptr inbounds [25 x i32], [25 x i32]* %4, i64 0, i64 %28
  %31 = bitcast i32* %30 to <4 x i32>*
  store <4 x i32> <i32 1, i32 1, i32 1, i32 1>, <4 x i32>* %31, align 16, !tbaa !5
  %32 = getelementptr inbounds i32, i32* %30, i64 4
  %33 = bitcast i32* %32 to <4 x i32>*
  store <4 x i32> <i32 1, i32 1, i32 1, i32 1>, <4 x i32>* %33, align 16, !tbaa !5
  %34 = or i64 %28, 8
  %35 = getelementptr inbounds [25 x i32], [25 x i32]* %4, i64 0, i64 %34
  %36 = bitcast i32* %35 to <4 x i32>*
  store <4 x i32> <i32 1, i32 1, i32 1, i32 1>, <4 x i32>* %36, align 16, !tbaa !5
  %37 = getelementptr inbounds i32, i32* %35, i64 4
  %38 = bitcast i32* %37 to <4 x i32>*
  store <4 x i32> <i32 1, i32 1, i32 1, i32 1>, <4 x i32>* %38, align 16, !tbaa !5
  %39 = or i64 %28, 16
  %40 = getelementptr inbounds [25 x i32], [25 x i32]* %4, i64 0, i64 %39
  %41 = bitcast i32* %40 to <4 x i32>*
  store <4 x i32> <i32 1, i32 1, i32 1, i32 1>, <4 x i32>* %41, align 16, !tbaa !5
  %42 = getelementptr inbounds i32, i32* %40, i64 4
  %43 = bitcast i32* %42 to <4 x i32>*
  store <4 x i32> <i32 1, i32 1, i32 1, i32 1>, <4 x i32>* %43, align 16, !tbaa !5
  %44 = or i64 %28, 24
  %45 = getelementptr inbounds [25 x i32], [25 x i32]* %4, i64 0, i64 %44
  %46 = bitcast i32* %45 to <4 x i32>*
  store <4 x i32> <i32 1, i32 1, i32 1, i32 1>, <4 x i32>* %46, align 16, !tbaa !5
  %47 = getelementptr inbounds i32, i32* %45, i64 4
  %48 = bitcast i32* %47 to <4 x i32>*
  store <4 x i32> <i32 1, i32 1, i32 1, i32 1>, <4 x i32>* %48, align 16, !tbaa !5
  %49 = or i64 %28, 32
  %50 = getelementptr inbounds [25 x i32], [25 x i32]* %4, i64 0, i64 %49
  %51 = bitcast i32* %50 to <4 x i32>*
  store <4 x i32> <i32 1, i32 1, i32 1, i32 1>, <4 x i32>* %51, align 16, !tbaa !5
  %52 = getelementptr inbounds i32, i32* %50, i64 4
  %53 = bitcast i32* %52 to <4 x i32>*
  store <4 x i32> <i32 1, i32 1, i32 1, i32 1>, <4 x i32>* %53, align 16, !tbaa !5
  %54 = or i64 %28, 40
  %55 = getelementptr inbounds [25 x i32], [25 x i32]* %4, i64 0, i64 %54
  %56 = bitcast i32* %55 to <4 x i32>*
  store <4 x i32> <i32 1, i32 1, i32 1, i32 1>, <4 x i32>* %56, align 16, !tbaa !5
  %57 = getelementptr inbounds i32, i32* %55, i64 4
  %58 = bitcast i32* %57 to <4 x i32>*
  store <4 x i32> <i32 1, i32 1, i32 1, i32 1>, <4 x i32>* %58, align 16, !tbaa !5
  %59 = or i64 %28, 48
  %60 = getelementptr inbounds [25 x i32], [25 x i32]* %4, i64 0, i64 %59
  %61 = bitcast i32* %60 to <4 x i32>*
  store <4 x i32> <i32 1, i32 1, i32 1, i32 1>, <4 x i32>* %61, align 16, !tbaa !5
  %62 = getelementptr inbounds i32, i32* %60, i64 4
  %63 = bitcast i32* %62 to <4 x i32>*
  store <4 x i32> <i32 1, i32 1, i32 1, i32 1>, <4 x i32>* %63, align 16, !tbaa !5
  %64 = or i64 %28, 56
  %65 = getelementptr inbounds [25 x i32], [25 x i32]* %4, i64 0, i64 %64
  %66 = bitcast i32* %65 to <4 x i32>*
  store <4 x i32> <i32 1, i32 1, i32 1, i32 1>, <4 x i32>* %66, align 16, !tbaa !5
  %67 = getelementptr inbounds i32, i32* %65, i64 4
  %68 = bitcast i32* %67 to <4 x i32>*
  store <4 x i32> <i32 1, i32 1, i32 1, i32 1>, <4 x i32>* %68, align 16, !tbaa !5
  %69 = add nuw i64 %28, 64
  %70 = add i64 %29, -8
  %71 = icmp eq i64 %70, 0
  br i1 %71, label %72, label %27, !llvm.loop !9

72:                                               ; preds = %27, %18
  %73 = phi i64 [ 0, %18 ], [ %69, %27 ]
  %74 = icmp eq i64 %23, 0
  br i1 %74, label %85, label %75

75:                                               ; preds = %72, %75
  %76 = phi i64 [ %82, %75 ], [ %73, %72 ]
  %77 = phi i64 [ %83, %75 ], [ %23, %72 ]
  %78 = getelementptr inbounds [25 x i32], [25 x i32]* %4, i64 0, i64 %76
  %79 = bitcast i32* %78 to <4 x i32>*
  store <4 x i32> <i32 1, i32 1, i32 1, i32 1>, <4 x i32>* %79, align 16, !tbaa !5
  %80 = getelementptr inbounds i32, i32* %78, i64 4
  %81 = bitcast i32* %80 to <4 x i32>*
  store <4 x i32> <i32 1, i32 1, i32 1, i32 1>, <4 x i32>* %81, align 16, !tbaa !5
  %82 = add nuw i64 %76, 8
  %83 = add i64 %77, -1
  %84 = icmp eq i64 %83, 0
  br i1 %84, label %85, label %75, !llvm.loop !12

85:                                               ; preds = %75, %72
  %86 = icmp eq i64 %19, %16
  br i1 %86, label %97, label %87

87:                                               ; preds = %15, %85
  %88 = phi i64 [ 0, %15 ], [ %19, %85 ]
  br label %100

89:                                               ; preds = %0, %89
  %90 = phi i32 [ %94, %89 ], [ 0, %0 ]
  %91 = zext i32 %90 to i64
  %92 = getelementptr inbounds [25 x i32], [25 x i32]* %2, i64 0, i64 %91
  %93 = call i32 (i8*, ...) @__isoc99_scanf(i8* getelementptr inbounds ([3 x i8], [3 x i8]* @.str, i64 0, i64 0), i32* nonnull %92)
  %94 = add nuw nsw i32 %90, 1
  store i32 %94, i32* %3, align 4, !tbaa !5
  %95 = load i32, i32* %1, align 4, !tbaa !5
  %96 = icmp slt i32 %94, %95
  br i1 %96, label %89, label %13, !llvm.loop !14

97:                                               ; preds = %100, %85
  br i1 %14, label %98, label %156

98:                                               ; preds = %97
  %99 = zext i32 %95 to i64
  br label %109

100:                                              ; preds = %87, %100
  %101 = phi i64 [ %103, %100 ], [ %88, %87 ]
  %102 = getelementptr inbounds [25 x i32], [25 x i32]* %4, i64 0, i64 %101
  store i32 1, i32* %102, align 4, !tbaa !5
  %103 = add nuw nsw i64 %101, 1
  %104 = icmp eq i64 %103, %16
  br i1 %104, label %97, label %100, !llvm.loop !15

105:                                              ; preds = %136, %258, %109
  %106 = icmp sgt i64 %111, 1
  %107 = add nsw i64 %112, -1
  %108 = add i32 %110, 1
  br i1 %106, label %109, label %158, !llvm.loop !17

109:                                              ; preds = %98, %105
  %110 = phi i32 [ 0, %98 ], [ %108, %105 ]
  %111 = phi i64 [ %99, %98 ], [ %115, %105 ]
  %112 = phi i64 [ %99, %98 ], [ %107, %105 ]
  %113 = phi i32 [ %95, %98 ], [ %114, %105 ]
  %114 = add i32 %113, -1
  %115 = add nsw i64 %111, -1
  %116 = getelementptr inbounds [25 x i32], [25 x i32]* %4, i64 0, i64 %115
  %117 = icmp slt i32 %113, %95
  br i1 %117, label %118, label %105

118:                                              ; preds = %109
  %119 = getelementptr inbounds [25 x i32], [25 x i32]* %2, i64 0, i64 %115
  %120 = load i32, i32* %119, align 4, !tbaa !5
  %121 = and i32 %110, 1
  %122 = icmp eq i32 %121, 0
  br i1 %122, label %136, label %123

123:                                              ; preds = %118
  %124 = getelementptr inbounds [25 x i32], [25 x i32]* %2, i64 0, i64 %112
  %125 = load i32, i32* %124, align 4, !tbaa !5
  %126 = icmp slt i32 %120, %125
  br i1 %126, label %134, label %127

127:                                              ; preds = %123
  %128 = load i32, i32* %116, align 4, !tbaa !5
  %129 = getelementptr inbounds [25 x i32], [25 x i32]* %4, i64 0, i64 %112
  %130 = load i32, i32* %129, align 4, !tbaa !5
  %131 = icmp sgt i32 %128, %130
  br i1 %131, label %134, label %132

132:                                              ; preds = %127
  %133 = add nsw i32 %130, 1
  store i32 %133, i32* %116, align 4, !tbaa !5
  br label %134

134:                                              ; preds = %132, %127, %123
  %135 = add nsw i64 %112, 1
  br label %136

136:                                              ; preds = %134, %118
  %137 = phi i64 [ %135, %134 ], [ %112, %118 ]
  %138 = icmp eq i32 %110, 1
  br i1 %138, label %105, label %139

139:                                              ; preds = %136, %258
  %140 = phi i64 [ %259, %258 ], [ %137, %136 ]
  %141 = getelementptr inbounds [25 x i32], [25 x i32]* %2, i64 0, i64 %140
  %142 = load i32, i32* %141, align 4, !tbaa !5
  %143 = icmp slt i32 %120, %142
  br i1 %143, label %151, label %144

144:                                              ; preds = %139
  %145 = load i32, i32* %116, align 4, !tbaa !5
  %146 = getelementptr inbounds [25 x i32], [25 x i32]* %4, i64 0, i64 %140
  %147 = load i32, i32* %146, align 4, !tbaa !5
  %148 = icmp sgt i32 %145, %147
  br i1 %148, label %151, label %149

149:                                              ; preds = %144
  %150 = add nsw i32 %147, 1
  store i32 %150, i32* %116, align 4, !tbaa !5
  br label %151

151:                                              ; preds = %139, %144, %149
  %152 = add nsw i64 %140, 1
  %153 = getelementptr inbounds [25 x i32], [25 x i32]* %2, i64 0, i64 %152
  %154 = load i32, i32* %153, align 4, !tbaa !5
  %155 = icmp slt i32 %120, %154
  br i1 %155, label %258, label %251

156:                                              ; preds = %13, %0, %97
  %157 = load i32, i32* %9, align 16, !tbaa !5
  br label %246

158:                                              ; preds = %105
  %159 = load i32, i32* %9, align 16, !tbaa !5
  %160 = zext i32 %95 to i64
  %161 = icmp eq i32 %95, 1
  br i1 %161, label %246, label %162, !llvm.loop !18

162:                                              ; preds = %158
  %163 = add nsw i64 %16, -1
  %164 = icmp ult i64 %163, 8
  br i1 %164, label %234, label %165

165:                                              ; preds = %162
  %166 = and i64 %163, -8
  %167 = or i64 %166, 1
  %168 = insertelement <4 x i32> poison, i32 %159, i32 0
  %169 = shufflevector <4 x i32> %168, <4 x i32> poison, <4 x i32> zeroinitializer
  %170 = add nsw i64 %166, -8
  %171 = lshr exact i64 %170, 3
  %172 = add nuw nsw i64 %171, 1
  %173 = and i64 %172, 1
  %174 = icmp eq i64 %170, 0
  br i1 %174, label %209, label %175

175:                                              ; preds = %165
  %176 = and i64 %172, 4611686018427387902
  br label %177

177:                                              ; preds = %177, %175
  %178 = phi i64 [ 0, %175 ], [ %204, %177 ]
  %179 = phi <4 x i32> [ %169, %175 ], [ %202, %177 ]
  %180 = phi <4 x i32> [ %169, %175 ], [ %203, %177 ]
  %181 = phi i64 [ %176, %175 ], [ %205, %177 ]
  %182 = or i64 %178, 1
  %183 = getelementptr inbounds [25 x i32], [25 x i32]* %4, i64 0, i64 %182
  %184 = bitcast i32* %183 to <4 x i32>*
  %185 = load <4 x i32>, <4 x i32>* %184, align 4, !tbaa !5
  %186 = getelementptr inbounds i32, i32* %183, i64 4
  %187 = bitcast i32* %186 to <4 x i32>*
  %188 = load <4 x i32>, <4 x i32>* %187, align 4, !tbaa !5
  %189 = icmp sgt <4 x i32> %185, %179
  %190 = icmp sgt <4 x i32> %188, %180
  %191 = select <4 x i1> %189, <4 x i32> %185, <4 x i32> %179
  %192 = select <4 x i1> %190, <4 x i32> %188, <4 x i32> %180
  %193 = or i64 %178, 9
  %194 = getelementptr inbounds [25 x i32], [25 x i32]* %4, i64 0, i64 %193
  %195 = bitcast i32* %194 to <4 x i32>*
  %196 = load <4 x i32>, <4 x i32>* %195, align 4, !tbaa !5
  %197 = getelementptr inbounds i32, i32* %194, i64 4
  %198 = bitcast i32* %197 to <4 x i32>*
  %199 = load <4 x i32>, <4 x i32>* %198, align 4, !tbaa !5
  %200 = icmp sgt <4 x i32> %196, %191
  %201 = icmp sgt <4 x i32> %199, %192
  %202 = select <4 x i1> %200, <4 x i32> %196, <4 x i32> %191
  %203 = select <4 x i1> %201, <4 x i32> %199, <4 x i32> %192
  %204 = add nuw i64 %178, 16
  %205 = add i64 %181, -2
  %206 = icmp eq i64 %205, 0
  br i1 %206, label %207, label %177, !llvm.loop !19

207:                                              ; preds = %177
  %208 = or i64 %204, 1
  br label %209

209:                                              ; preds = %207, %165
  %210 = phi <4 x i32> [ undef, %165 ], [ %202, %207 ]
  %211 = phi <4 x i32> [ undef, %165 ], [ %203, %207 ]
  %212 = phi i64 [ 1, %165 ], [ %208, %207 ]
  %213 = phi <4 x i32> [ %169, %165 ], [ %202, %207 ]
  %214 = phi <4 x i32> [ %169, %165 ], [ %203, %207 ]
  %215 = icmp eq i64 %173, 0
  br i1 %215, label %227, label %216

216:                                              ; preds = %209
  %217 = getelementptr inbounds [25 x i32], [25 x i32]* %4, i64 0, i64 %212
  %218 = bitcast i32* %217 to <4 x i32>*
  %219 = load <4 x i32>, <4 x i32>* %218, align 4, !tbaa !5
  %220 = getelementptr inbounds i32, i32* %217, i64 4
  %221 = bitcast i32* %220 to <4 x i32>*
  %222 = load <4 x i32>, <4 x i32>* %221, align 4, !tbaa !5
  %223 = icmp sgt <4 x i32> %222, %214
  %224 = select <4 x i1> %223, <4 x i32> %222, <4 x i32> %214
  %225 = icmp sgt <4 x i32> %219, %213
  %226 = select <4 x i1> %225, <4 x i32> %219, <4 x i32> %213
  br label %227

227:                                              ; preds = %209, %216
  %228 = phi <4 x i32> [ %210, %209 ], [ %226, %216 ]
  %229 = phi <4 x i32> [ %211, %209 ], [ %224, %216 ]
  %230 = icmp sgt <4 x i32> %228, %229
  %231 = select <4 x i1> %230, <4 x i32> %228, <4 x i32> %229
  %232 = call i32 @llvm.vector.reduce.smax.v4i32(<4 x i32> %231)
  %233 = icmp eq i64 %163, %166
  br i1 %233, label %246, label %234

234:                                              ; preds = %162, %227
  %235 = phi i64 [ 1, %162 ], [ %167, %227 ]
  %236 = phi i32 [ %159, %162 ], [ %232, %227 ]
  br label %237

237:                                              ; preds = %234, %237
  %238 = phi i64 [ %244, %237 ], [ %235, %234 ]
  %239 = phi i32 [ %243, %237 ], [ %236, %234 ]
  %240 = getelementptr inbounds [25 x i32], [25 x i32]* %4, i64 0, i64 %238
  %241 = load i32, i32* %240, align 4, !tbaa !5
  %242 = icmp sgt i32 %241, %239
  %243 = select i1 %242, i32 %241, i32 %239
  %244 = add nuw nsw i64 %238, 1
  %245 = icmp eq i64 %244, %160
  br i1 %245, label %246, label %237, !llvm.loop !20

246:                                              ; preds = %237, %158, %227, %156
  %247 = phi i32 [ 0, %156 ], [ %95, %227 ], [ %95, %158 ], [ %95, %237 ]
  %248 = phi i32 [ %157, %156 ], [ %232, %227 ], [ %159, %158 ], [ %243, %237 ]
  store i32 %247, i32* %3, align 4, !tbaa !5
  %249 = call i32 (i8*, ...) @printf(i8* nonnull dereferenceable(1) getelementptr inbounds ([3 x i8], [3 x i8]* @.str, i64 0, i64 0), i32 %248)
  %250 = call i32 (i8*, ...) @__isoc99_scanf(i8* getelementptr inbounds ([3 x i8], [3 x i8]* @.str, i64 0, i64 0), i32* nonnull %3)
  call void @llvm.lifetime.end.p0i8(i64 100, i8* nonnull %8) #5
  call void @llvm.lifetime.end.p0i8(i64 4, i8* nonnull %7) #5
  call void @llvm.lifetime.end.p0i8(i64 100, i8* nonnull %6) #5
  call void @llvm.lifetime.end.p0i8(i64 4, i8* nonnull %5) #5
  ret i32 0

251:                                              ; preds = %151
  %252 = load i32, i32* %116, align 4, !tbaa !5
  %253 = getelementptr inbounds [25 x i32], [25 x i32]* %4, i64 0, i64 %152
  %254 = load i32, i32* %253, align 4, !tbaa !5
  %255 = icmp sgt i32 %252, %254
  br i1 %255, label %258, label %256

256:                                              ; preds = %251
  %257 = add nsw i32 %254, 1
  store i32 %257, i32* %116, align 4, !tbaa !5
  br label %258

258:                                              ; preds = %256, %251, %151
  %259 = add nsw i64 %140, 2
  %260 = trunc i64 %259 to i32
  %261 = icmp eq i32 %95, %260
  br i1 %261, label %105, label %139, !llvm.loop !21
}

; Function Attrs: argmemonly mustprogress nofree nosync nounwind willreturn
declare void @llvm.lifetime.start.p0i8(i64 immarg, i8* nocapture) #1

; Function Attrs: argmemonly mustprogress nofree nounwind willreturn writeonly
declare void @llvm.memset.p0i8.i64(i8* nocapture writeonly, i8, i64, i1 immarg) #2

; Function Attrs: nofree nounwind
declare noundef i32 @__isoc99_scanf(i8* nocapture noundef readonly, ...) local_unnamed_addr #3

; Function Attrs: nofree nounwind
declare noundef i32 @printf(i8* nocapture noundef readonly, ...) local_unnamed_addr #3

; Function Attrs: argmemonly mustprogress nofree nosync nounwind willreturn
declare void @llvm.lifetime.end.p0i8(i64 immarg, i8* nocapture) #1

; Function Attrs: nofree nosync nounwind readnone willreturn
declare i32 @llvm.vector.reduce.smax.v4i32(<4 x i32>) #4


!llvm.module.flags = !{!0, !1, !2, !3}
!llvm.ident = !{!4}

!0 = !{i32 1, !"wchar_size", i32 4}
!1 = !{i32 7, !"PIC Level", i32 2}
!2 = !{i32 7, !"PIE Level", i32 2}
!3 = !{i32 7, !"uwtable", i32 1}
!4 = !{!"clang version 13.0.0"}
!5 = !{!6, !6, i64 0}
!6 = !{!"int", !7, i64 0}
!7 = !{!"omnipotent char", !8, i64 0}
!8 = !{!"Simple C/C++ TBAA"}
!9 = distinct !{!9, !10, !11}
!10 = !{!"llvm.loop.mustprogress"}
!11 = !{!"llvm.loop.isvectorized", i32 1}
!12 = distinct !{!12, !13}
!13 = !{!"llvm.loop.unroll.disable"}
!14 = distinct !{!14, !10}
!15 = distinct !{!15, !10, !16, !11}
!16 = !{!"llvm.loop.unroll.runtime.disable"}
!17 = distinct !{!17, !10}
!18 = distinct !{!18, !10}
!19 = distinct !{!19, !10, !11}
!20 = distinct !{!20, !10, !16, !11}
!21 = distinct !{!21, !10}
